; Function Attrs: mustprogress uwtable
define hidden noundef zeroext i1 @_ZN6google8protobuf2io16CodedInputStream7ReadRawEPvi(ptr noundef nonnull align 8 captures(none) dereferenceable(80) %0, ptr noundef writeonly captures(none) %1, i32 noundef %2) local_unnamed_addr #4 align 2 {
  %4 = getelementptr inbounds nuw i8, ptr %0, i64 8
  br label %5

5:                                                ; preds = %12, %3
  %.013 = phi ptr [ %1, %3 ], [ %14, %12 ]
  %.012 = phi i32 [ %2, %3 ], [ %15, %12 ]
  %6 = load ptr, ptr %4, align 8, !tbaa !14
  %7 = load ptr, ptr %0, align 8, !tbaa !15
  %8 = ptrtoint ptr %6 to i64
  %9 = ptrtoint ptr %7 to i64
  %10 = sub i64 %8, %9
  %11 = trunc i64 %10 to i32
  %.not.not.not.not.not = icmp sle i32 %.012, %11
  br i1 %.not.not.not.not.not, label %19, label %12

12:                                               ; preds = %5
  %sext = shl i64 %10, 32
  %13 = ashr exact i64 %sext, 32
  tail call void @llvm.memcpy.p0.p0.i64(ptr align 1 %.013, ptr align 1 %7, i64 %13, i1 false)
  %14 = getelementptr inbounds i8, ptr %.013, i64 %13
  %15 = sub nsw i32 %.012, %11
  %16 = load ptr, ptr %0, align 8, !tbaa !15
  %17 = getelementptr inbounds i8, ptr %16, i64 %13
  store ptr %17, ptr %0, align 8, !tbaa !15
  %18 = tail call noundef zeroext i1 @_ZN6google8protobuf2io16CodedInputStream7RefreshEv(ptr noundef nonnull align 8 dereferenceable(80) %0)
  br i1 %18, label %5, label %.loopexit, !llvm.loop !35

19:                                               ; preds = %5
  %20 = sext i32 %.012 to i64
  tail call void @llvm.memcpy.p0.p0.i64(ptr align 1 %.013, ptr align 1 %7, i64 %20, i1 false)
  %21 = load ptr, ptr %0, align 8, !tbaa !15
  %22 = getelementptr inbounds i8, ptr %21, i64 %20
  store ptr %22, ptr %0, align 8, !tbaa !15
  br label %.loopexit

.loopexit:                                        ; preds = %12, %19
  ret i1 %.not.not.not.not.not
}